; Function Attrs: mustprogress nounwind uwtable
define void @_ZN8nanobind6detail16nb_inst_destructEP7_object(ptr noundef %0) local_unnamed_addr #5 personality ptr @__gxx_personality_v0 {
  %2 = getelementptr inbounds nuw i8, ptr %0, i64 8
  %3 = load ptr, ptr %2, align 8
  %4 = getelementptr inbounds nuw i8, ptr %0, i64 20
  %5 = load i32, ptr %4, align 4
  %6 = and i32 %5, 3
  %.not = icmp eq i32 %6, 1
  br i1 %.not, label %7, label %8, !prof !4

7:                                                ; preds = %1
  tail call void @_ZN8nanobind6detail16fail_unspecifiedEv() #30
  unreachable

8:                                                ; preds = %1
  %9 = and i32 %5, 16
  %.not10 = icmp eq i32 %9, 0
  br i1 %.not10, label %33, label %10

10:                                               ; preds = %8
  %11 = getelementptr inbounds nuw i8, ptr %3, i64 892
  %12 = load i32, ptr %11, align 4
  %13 = and i32 %12, 256
  %.not11 = icmp eq i32 %13, 0
  br i1 %.not11, label %14, label %15, !prof !4

14:                                               ; preds = %10
  tail call void @_ZN8nanobind6detail16fail_unspecifiedEv() #30
  unreachable

15:                                               ; preds = %10
  %16 = and i32 %12, 4096
  %.not12 = icmp eq i32 %16, 0
  br i1 %.not12, label %30, label %17

17:                                               ; preds = %15
  %18 = getelementptr inbounds nuw i8, ptr %3, i64 936
  %19 = load ptr, ptr %18, align 8
  %20 = ptrtoint ptr %0 to i64
  %21 = getelementptr inbounds nuw i8, ptr %0, i64 16
  %22 = load i32, ptr %21, align 8
  %23 = sext i32 %22 to i64
  %24 = add nsw i64 %23, %20
  %25 = inttoptr i64 %24 to ptr
  %26 = and i32 %5, 4
  %.not.i = icmp eq i32 %26, 0
  br i1 %.not.i, label %27, label %_ZN8nanobind6detail8inst_ptrEPNS0_7nb_instE.exit

27:                                               ; preds = %17
  %28 = load ptr, ptr %25, align 8
  br label %_ZN8nanobind6detail8inst_ptrEPNS0_7nb_instE.exit

_ZN8nanobind6detail8inst_ptrEPNS0_7nb_instE.exit: ; preds = %17, %27
  %29 = phi ptr [ %28, %27 ], [ %25, %17 ]
  invoke void %19(ptr noundef %29)
          to label %_ZN8nanobind6detail8inst_ptrEPNS0_7nb_instE.exit._crit_edge unwind label %36

_ZN8nanobind6detail8inst_ptrEPNS0_7nb_instE.exit._crit_edge: ; preds = %_ZN8nanobind6detail8inst_ptrEPNS0_7nb_instE.exit
  %.pre = load i32, ptr %4, align 4
  br label %30

30:                                               ; preds = %_ZN8nanobind6detail8inst_ptrEPNS0_7nb_instE.exit._crit_edge, %15
  %31 = phi i32 [ %.pre, %_ZN8nanobind6detail8inst_ptrEPNS0_7nb_instE.exit._crit_edge ], [ %5, %15 ]
  %32 = and i32 %31, -17
  br label %33

33:                                               ; preds = %30, %8
  %34 = phi i32 [ %32, %30 ], [ %5, %8 ]
  %35 = and i32 %34, -4
  store i32 %35, ptr %4, align 4
  ret void

36:                                               ; preds = %_ZN8nanobind6detail8inst_ptrEPNS0_7nb_instE.exit
  %37 = landingpad { ptr, i32 }
          catch ptr null
  %38 = extractvalue { ptr, i32 } %37, 0
  tail call void @__clang_call_terminate(ptr %38) #30
  unreachable
}